; Function Attrs: mustprogress nofree norecurse nosync nounwind willreturn memory(read, inaccessiblemem: none) uwtable
define dso_local noundef i32 @_ZN5ImGui11GetColorU32Ejf(i32 noundef %0, float noundef %1) local_unnamed_addr #31 {
  %3 = load ptr, ptr @GImGui, align 8, !tbaa !211
  %4 = getelementptr inbounds nuw i8, ptr %3, i64 3016
  %5 = load float, ptr %4, align 4, !tbaa !4
  %6 = fmul float %1, %5
  %7 = fcmp ult float %6, 1.000000e+00
  br i1 %7, label %8, label %16

8:                                                ; preds = %2
  %9 = lshr i32 %0, 24
  %10 = uitofp nneg i32 %9 to float
  %11 = fmul float %6, %10
  %12 = fptoui float %11 to i32
  %13 = and i32 %0, 16777215
  %14 = shl i32 %12, 24
  %15 = or disjoint i32 %14, %13
  br label %16

16:                                               ; preds = %2, %8
  %.0 = phi i32 [ %15, %8 ], [ %0, %2 ]
  ret i32 %.0
}